target datalayout = "e-m:e-p270:32:32-p271:32:32-p272:64:64-i64:64-i128:128-f80:128-n8:16:32:64-S128"
target triple = "x86_64-pc-linux-gnu"

%struct.TupleDescData = type { i32, i32, i32, i32, ptr, [0 x %struct.CompactAttribute] }
%struct.CompactAttribute = type { i32, i16, i8, i8, i8, i8, i8, i8, i8 }
%struct.FormData_pg_attribute = type { i32, %struct.nameData, i32, i16, i16, i32, i16, i8, i8, i8, i8, i8, i8, i8, i8, i8, i8, i8, i16, i32 }
%struct.nameData = type { [64 x i8] }

; Function Attrs: inlinehint nounwind uwtable
define internal ptr @TupleDescAttr(ptr noundef %0, i32 noundef %1) #2 {
  %3 = alloca ptr, align 8
  %4 = alloca i32, align 4
  %5 = alloca ptr, align 8
  store ptr %0, ptr %3, align 8
  store i32 %1, ptr %4, align 4
  call void @llvm.lifetime.start.p0(i64 8, ptr %5) #8
  %6 = load ptr, ptr %3, align 8
  %7 = load ptr, ptr %3, align 8
  %8 = getelementptr inbounds nuw %struct.TupleDescData, ptr %7, i32 0, i32 0
  %9 = load i32, ptr %8, align 8
  %10 = sext i32 %9 to i64
  %11 = mul i64 %10, 16
  %12 = add i64 24, %11
  %13 = getelementptr inbounds nuw i8, ptr %6, i64 %12
  store ptr %13, ptr %5, align 8
  %14 = load ptr, ptr %5, align 8
  %15 = load i32, ptr %4, align 4
  %16 = sext i32 %15 to i64
  %17 = getelementptr inbounds %struct.FormData_pg_attribute, ptr %14, i64 %16
  call void @llvm.lifetime.end.p0(i64 8, ptr %5) #8
  ret ptr %17
}

; Function Attrs: nounwind uwtable
define dso_local ptr @CreateTemplateTupleDesc(i32 noundef %0) #0 {
  %2 = alloca i32, align 4
  %3 = alloca ptr, align 8
  store i32 %0, ptr %2, align 4
  call void @llvm.lifetime.start.p0(i64 8, ptr %3) #8
  %4 = load i32, ptr %2, align 4
  %5 = sext i32 %4 to i64
  %6 = mul i64 %5, 16
  %7 = add i64 24, %6
  %8 = load i32, ptr %2, align 4
  %9 = sext i32 %8 to i64
  %10 = mul i64 %9, 100
  %11 = add i64 %7, %10
  %12 = call ptr @palloc(i64 noundef %11)
  store ptr %12, ptr %3, align 8
  %13 = load i32, ptr %2, align 4
  %14 = load ptr, ptr %3, align 8
  %15 = getelementptr inbounds nuw %struct.TupleDescData, ptr %14, i32 0, i32 0
  store i32 %13, ptr %15, align 8
  %16 = load ptr, ptr %3, align 8
  %17 = getelementptr inbounds nuw %struct.TupleDescData, ptr %16, i32 0, i32 4
  store ptr null, ptr %17, align 8
  %18 = load ptr, ptr %3, align 8
  %19 = getelementptr inbounds nuw %struct.TupleDescData, ptr %18, i32 0, i32 1
  store i32 2249, ptr %19, align 4
  %20 = load ptr, ptr %3, align 8
  %21 = getelementptr inbounds nuw %struct.TupleDescData, ptr %20, i32 0, i32 2
  store i32 -1, ptr %21, align 8
  %22 = load ptr, ptr %3, align 8
  %23 = getelementptr inbounds nuw %struct.TupleDescData, ptr %22, i32 0, i32 3
  store i32 -1, ptr %23, align 4
  %24 = load ptr, ptr %3, align 8
  call void @llvm.lifetime.end.p0(i64 8, ptr %3) #8
  ret ptr %24
}

; Function Attrs: nounwind uwtable
define dso_local ptr @CreateTupleDescTruncatedCopy(ptr noundef %0, i32 noundef %1) #0 {
  %3 = alloca ptr, align 8
  %4 = alloca i32, align 4
  %5 = alloca ptr, align 8
  %6 = alloca i32, align 4
  %7 = alloca ptr, align 8
  store ptr %0, ptr %3, align 8
  store i32 %1, ptr %4, align 4
  call void @llvm.lifetime.start.p0(i64 8, ptr %5) #8
  call void @llvm.lifetime.start.p0(i64 4, ptr %6) #8
  %8 = load i32, ptr %4, align 4
  %9 = call ptr @CreateTemplateTupleDesc(i32 noundef %8)
  store ptr %9, ptr %5, align 8
  %10 = load ptr, ptr %5, align 8
  %11 = call ptr @TupleDescAttr(ptr noundef %10, i32 noundef 0)
  %12 = load ptr, ptr %3, align 8
  %13 = call ptr @TupleDescAttr(ptr noundef %12, i32 noundef 0)
  %14 = load ptr, ptr %5, align 8
  %15 = getelementptr inbounds nuw %struct.TupleDescData, ptr %14, i32 0, i32 0
  %16 = load i32, ptr %15, align 8
  %17 = sext i32 %16 to i64
  %18 = mul i64 %17, 100
  call void @llvm.memcpy.p0.p0.i64(ptr align 4 %11, ptr align 4 %13, i64 %18, i1 false)
  store i32 0, ptr %6, align 4
  br label %19

19:                                               ; preds = %41, %2
  %20 = load i32, ptr %6, align 4
  %21 = load ptr, ptr %5, align 8
  %22 = getelementptr inbounds nuw %struct.TupleDescData, ptr %21, i32 0, i32 0
  %23 = load i32, ptr %22, align 8
  %24 = icmp slt i32 %20, %23
  br i1 %24, label %25, label %44

25:                                               ; preds = %19
  call void @llvm.lifetime.start.p0(i64 8, ptr %7) #8
  %26 = load ptr, ptr %5, align 8
  %27 = load i32, ptr %6, align 4
  %28 = call ptr @TupleDescAttr(ptr noundef %26, i32 noundef %27)
  store ptr %28, ptr %7, align 8
  %29 = load ptr, ptr %7, align 8
  %30 = getelementptr inbounds nuw %struct.FormData_pg_attribute, ptr %29, i32 0, i32 11
  store i8 0, ptr %30, align 2
  %31 = load ptr, ptr %7, align 8
  %32 = getelementptr inbounds nuw %struct.FormData_pg_attribute, ptr %31, i32 0, i32 12
  store i8 0, ptr %32, align 1
  %33 = load ptr, ptr %7, align 8
  %34 = getelementptr inbounds nuw %struct.FormData_pg_attribute, ptr %33, i32 0, i32 13
  store i8 0, ptr %34, align 4
  %35 = load ptr, ptr %7, align 8
  %36 = getelementptr inbounds nuw %struct.FormData_pg_attribute, ptr %35, i32 0, i32 14
  store i8 0, ptr %36, align 1
  %37 = load ptr, ptr %7, align 8
  %38 = getelementptr inbounds nuw %struct.FormData_pg_attribute, ptr %37, i32 0, i32 15
  store i8 0, ptr %38, align 2
  %39 = load ptr, ptr %5, align 8
  %40 = load i32, ptr %6, align 4
  call void @populate_compact_attribute(ptr noundef %39, i32 noundef %40)
  call void @llvm.lifetime.end.p0(i64 8, ptr %7) #8
  br label %41

41:                                               ; preds = %25
  %42 = load i32, ptr %6, align 4
  %43 = add i32 %42, 1
  store i32 %43, ptr %6, align 4
  br label %19, !llvm.loop !9

44:                                               ; preds = %19
  %45 = load ptr, ptr %3, align 8
  %46 = getelementptr inbounds nuw %struct.TupleDescData, ptr %45, i32 0, i32 1
  %47 = load i32, ptr %46, align 4
  %48 = load ptr, ptr %5, align 8
  %49 = getelementptr inbounds nuw %struct.TupleDescData, ptr %48, i32 0, i32 1
  store i32 %47, ptr %49, align 4
  %50 = load ptr, ptr %3, align 8
  %51 = getelementptr inbounds nuw %struct.TupleDescData, ptr %50, i32 0, i32 2
  %52 = load i32, ptr %51, align 8
  %53 = load ptr, ptr %5, align 8
  %54 = getelementptr inbounds nuw %struct.TupleDescData, ptr %53, i32 0, i32 2
  store i32 %52, ptr %54, align 8
  %55 = load ptr, ptr %5, align 8
  call void @llvm.lifetime.end.p0(i64 4, ptr %6) #8
  call void @llvm.lifetime.end.p0(i64 8, ptr %5) #8
  ret ptr %55
}